target datalayout = "e-m:e-p270:32:32-p271:32:32-p272:64:64-i64:64-i128:128-f80:128-n8:16:32:64-S128"
target triple = "x86_64-pc-linux-gnu"

; Function Attrs: nounwind uwtable
define internal void @remap1_16bit_line_c(ptr noundef %0, i32 noundef %1, ptr noundef %2, i64 noundef %3, ptr noundef %4, ptr noundef %5, ptr noundef %6) #0 {
  %8 = alloca ptr, align 8
  %9 = alloca i32, align 4
  %10 = alloca ptr, align 8
  %11 = alloca i64, align 8
  %12 = alloca ptr, align 8
  %13 = alloca ptr, align 8
  %14 = alloca ptr, align 8
  %15 = alloca ptr, align 8
  %16 = alloca ptr, align 8
  %17 = alloca i32, align 4
  store ptr %0, ptr %8, align 8, !tbaa !18
  store i32 %1, ptr %9, align 4, !tbaa !9
  store ptr %2, ptr %10, align 8, !tbaa !18
  store i64 %3, ptr %11, align 8, !tbaa !19
  store ptr %4, ptr %12, align 8, !tbaa !21
  store ptr %5, ptr %13, align 8, !tbaa !21
  store ptr %6, ptr %14, align 8, !tbaa !21
  call void @llvm.lifetime.start.p0(i64 8, ptr %15) #13
  %18 = load ptr, ptr %10, align 8, !tbaa !18
  store ptr %18, ptr %15, align 8, !tbaa !21
  call void @llvm.lifetime.start.p0(i64 8, ptr %16) #13
  %19 = load ptr, ptr %8, align 8, !tbaa !18
  store ptr %19, ptr %16, align 8, !tbaa !21
  %20 = load i64, ptr %11, align 8, !tbaa !19
  %21 = sdiv i64 %20, 2
  store i64 %21, ptr %11, align 8, !tbaa !19
  call void @llvm.lifetime.start.p0(i64 4, ptr %17) #13
  store i32 0, ptr %17, align 4, !tbaa !9
  br label %22

22:                                               ; preds = %50, %7
  %23 = load i32, ptr %17, align 4, !tbaa !9
  %24 = load i32, ptr %9, align 4, !tbaa !9
  %25 = icmp slt i32 %23, %24
  br i1 %25, label %27, label %26

26:                                               ; preds = %22
  call void @llvm.lifetime.end.p0(i64 4, ptr %17) #13
  br label %53

27:                                               ; preds = %22
  %28 = load ptr, ptr %15, align 8, !tbaa !21
  %29 = load ptr, ptr %13, align 8, !tbaa !21
  %30 = load i32, ptr %17, align 4, !tbaa !9
  %31 = sext i32 %30 to i64
  %32 = getelementptr inbounds i16, ptr %29, i64 %31
  %33 = load i16, ptr %32, align 2, !tbaa !23
  %34 = sext i16 %33 to i64
  %35 = load i64, ptr %11, align 8, !tbaa !19
  %36 = mul nsw i64 %34, %35
  %37 = load ptr, ptr %12, align 8, !tbaa !21
  %38 = load i32, ptr %17, align 4, !tbaa !9
  %39 = sext i32 %38 to i64
  %40 = getelementptr inbounds i16, ptr %37, i64 %39
  %41 = load i16, ptr %40, align 2, !tbaa !23
  %42 = sext i16 %41 to i64
  %43 = add nsw i64 %36, %42
  %44 = getelementptr inbounds i16, ptr %28, i64 %43
  %45 = load i16, ptr %44, align 2, !tbaa !23
  %46 = load ptr, ptr %16, align 8, !tbaa !21
  %47 = load i32, ptr %17, align 4, !tbaa !9
  %48 = sext i32 %47 to i64
  %49 = getelementptr inbounds i16, ptr %46, i64 %48
  store i16 %45, ptr %49, align 2, !tbaa !23
  br label %50

50:                                               ; preds = %27
  %51 = load i32, ptr %17, align 4, !tbaa !9
  %52 = add nsw i32 %51, 1
  store i32 %52, ptr %17, align 4, !tbaa !9
  br label %22, !llvm.loop !28

53:                                               ; preds = %26
  call void @llvm.lifetime.end.p0(i64 8, ptr %16) #13
  call void @llvm.lifetime.end.p0(i64 8, ptr %15) #13
  ret void
}