; Function Attrs: nofree norecurse nosync nounwind memory(argmem: readwrite) uwtable
define internal void @remap1_16bit_line_c(ptr noundef writeonly captures(none) %0, i32 noundef %1, ptr noundef readonly captures(none) %2, i64 noundef %3, ptr noundef readonly captures(none) %4, ptr noundef readonly captures(none) %5, ptr readnone captures(none) %6) #1 {
  %8 = sdiv i64 %3, 2
  %9 = icmp sgt i32 %1, 0
  br i1 %9, label %.lr.ph.preheader, label %._crit_edge

.lr.ph.preheader:                                 ; preds = %7
  %wide.trip.count = zext nneg i32 %1 to i64
  br label %.lr.ph

._crit_edge:                                      ; preds = %.lr.ph, %7
  ret void

.lr.ph:                                           ; preds = %.lr.ph.preheader, %.lr.ph
  %indvars.iv = phi i64 [ 0, %.lr.ph.preheader ], [ %indvars.iv.next, %.lr.ph ]
  %10 = getelementptr inbounds nuw i16, ptr %5, i64 %indvars.iv
  %11 = load i16, ptr %10, align 2, !tbaa !15
  %12 = sext i16 %11 to i64
  %13 = mul nsw i64 %8, %12
  %14 = getelementptr inbounds nuw i16, ptr %4, i64 %indvars.iv
  %15 = load i16, ptr %14, align 2, !tbaa !15
  %16 = sext i16 %15 to i64
  %17 = getelementptr i16, ptr %2, i64 %13
  %18 = getelementptr i16, ptr %17, i64 %16
  %19 = load i16, ptr %18, align 2, !tbaa !15
  %20 = getelementptr inbounds nuw i16, ptr %0, i64 %indvars.iv
  store i16 %19, ptr %20, align 2, !tbaa !15
  %indvars.iv.next = add nuw nsw i64 %indvars.iv, 1
  %exitcond.not = icmp eq i64 %indvars.iv.next, %wide.trip.count
  br i1 %exitcond.not, label %._crit_edge, label %.lr.ph, !llvm.loop !20
}